; Listing generated by Microsoft (R) Optimizing Compiler Version 19.23.28105.4 

include listing.inc

INCLUDELIB MSVCRTD
INCLUDELIB OLDNAMES

CONST	SEGMENT
$SG139373 DB	'D:\Ins_Develop\qt\5.12.5\msvc2017_64\include\QtCore\qmet'
	DB	'atype.h', 00H
$SG139374 DB	'qRegisterNormalizedMetaType was called with a not normal'
	DB	'ized type name, please call qRegisterMetaType instead.', 00H
	ORG $+1
$SG139375 DB	'qRegisterNormalizedMetaType', 00H
	ORG $+4
$SG140203 DB	'D:\Ins_Develop\qt\5.12.5\msvc2017_64\include\QtCore\qmet'
	DB	'atype.h', 00H
$SG140204 DB	'qRegisterNormalizedMetaType was called with a not normal'
	DB	'ized type name, please call qRegisterMetaType instead.', 00H
	ORG $+1
$SG140205 DB	'qRegisterNormalizedMetaType', 00H
$SG140553 DB	'%s', 00H
	ORG $+1
$SG140552 DB	'invalid argument', 00H
	ORG $+7
$SG140557 DB	'"', 00H, 'i', 00H, 'n', 00H, 'v', 00H, 'a', 00H, 'l', 00H
	DB	'i', 00H, 'd', 00H, ' ', 00H, 'a', 00H, 'r', 00H, 'g', 00H, 'u'
	DB	00H, 'm', 00H, 'e', 00H, 'n', 00H, 't', 00H, '"', 00H, 00H, 00H
	ORG $+2
$SG140554 DB	'D:\Ins_Develop\vs2017\ide\VC\Tools\MSVC\14.23.28105\incl'
	DB	'ude\xmemory', 00H
	ORG $+12
$SG140555 DB	'D', 00H, ':', 00H, '\', 00H, 'I', 00H, 'n', 00H, 's', 00H
	DB	'_', 00H, 'D', 00H, 'e', 00H, 'v', 00H, 'e', 00H, 'l', 00H, 'o'
	DB	00H, 'p', 00H, '\', 00H, 'v', 00H, 's', 00H, '2', 00H, '0', 00H
	DB	'1', 00H, '7', 00H, '\', 00H, 'i', 00H, 'd', 00H, 'e', 00H, '\'
	DB	00H, 'V', 00H, 'C', 00H, '\', 00H, 'T', 00H, 'o', 00H, 'o', 00H
	DB	'l', 00H, 's', 00H, '\', 00H, 'M', 00H, 'S', 00H, 'V', 00H, 'C'
	DB	00H, '\', 00H, '1', 00H, '4', 00H, '.', 00H, '2', 00H, '3', 00H
	DB	'.', 00H, '2', 00H, '8', 00H, '1', 00H, '0', 00H, '5', 00H, '\'
	DB	00H, 'i', 00H, 'n', 00H, 'c', 00H, 'l', 00H, 'u', 00H, 'd', 00H
	DB	'e', 00H, '\', 00H, 'x', 00H, 'm', 00H, 'e', 00H, 'm', 00H, 'o'
	DB	00H, 'r', 00H, 'y', 00H, 00H, 00H
	ORG $+8
$SG140556 DB	's', 00H, 't', 00H, 'd', 00H, ':', 00H, ':', 00H, '_', 00H
	DB	'A', 00H, 'l', 00H, 'l', 00H, 'o', 00H, 'c', 00H, 'a', 00H, 't'
	DB	00H, 'e', 00H, '_', 00H, 'm', 00H, 'a', 00H, 'n', 00H, 'u', 00H
	DB	'a', 00H, 'l', 00H, 'l', 00H, 'y', 00H, '_', 00H, 'v', 00H, 'e'
	DB	00H, 'c', 00H, 't', 00H, 'o', 00H, 'r', 00H, '_', 00H, 'a', 00H
	DB	'l', 00H, 'i', 00H, 'g', 00H, 'n', 00H, 'e', 00H, 'd', 00H, 00H
	DB	00H
	ORG $+2
$SG140666 DB	'D:\Ins_Develop\vs2017\ide\VC\Tools\MSVC\14.23.28105\incl'
	DB	'ude\xlocale', 00H
	ORG $+4
?qt_meta_stringdata_Qt_1@@3Uqt_meta_stringdata_Qt_1_t@@B DD 0ffffffffH ; qt_meta_stringdata_Qt_1
	DD	04H
	DD	00H
	ORG $+4
	DQ	0000000000000018H
	DB	051H
	DB	074H
	DB	05fH
	DB	031H
	DB	00H
	ORG $+3
?qt_meta_data_Qt_1@@3QBIB DD 08H			; qt_meta_data_Qt_1
	DD	00H
	DD	00H
	DD	00H
	DD	00H
	DD	00H
	DD	00H
	DD	00H
	DD	00H
	DD	00H
	DD	00H
	DD	00H
	DD	00H
	DD	00H
	DD	00H
	ORG $+12
$SG135822 DB	'D:\Ins_Develop\qt\5.12.5\msvc2017_64\include\QtCore\qmet'
	DB	'atype.h', 00H
$SG135823 DB	'qRegisterNormalizedMetaType was called with a not normal'
	DB	'ized type name, please call qRegisterMetaType instead.', 00H
	ORG $+1
$SG135824 DB	'qRegisterNormalizedMetaType', 00H
	ORG $+4
$SG138695 DB	'D:\Ins_Develop\qt\5.12.5\msvc2017_64\include\QtCore\qmet'
	DB	'atype.h', 00H
$SG138696 DB	'qRegisterNormalizedMetaType was called with a not normal'
	DB	'ized type name, please call qRegisterMetaType instead.', 00H
	ORG $+1
$SG138697 DB	'qRegisterNormalizedMetaType', 00H
	ORG $+4
$SG139034 DB	'D:\Ins_Develop\qt\5.12.5\msvc2017_64\include\QtCore\qmet'
	DB	'atype.h', 00H
$SG139035 DB	'qRegisterNormalizedMetaType was called with a not normal'
	DB	'ized type name, please call qRegisterMetaType instead.', 00H
	ORG $+1
$SG139036 DB	'qRegisterNormalizedMetaType', 00H
CONST	ENDS
PUBLIC	?__empty_global_delete@@YAXPEAX@Z		; __empty_global_delete
PUBLIC	?__empty_global_delete@@YAXPEAX_K@Z		; __empty_global_delete
PUBLIC	??C?$QScopedPointer@VQObjectData@@U?$QScopedPointerDeleter@VQObjectData@@@@@@QEBAPEAVQObjectData@@XZ ; QScopedPointer<QObjectData,QScopedPointerDeleter<QObjectData> >::operator->
PUBLIC	?metaObject@Qt_1@@UEBAPEBUQMetaObject@@XZ	; Qt_1::metaObject
PUBLIC	?qt_metacast@Qt_1@@UEAAPEAXPEBD@Z		; Qt_1::qt_metacast
PUBLIC	?qt_metacall@Qt_1@@UEAAHW4Call@QMetaObject@@HPEAPEAX@Z ; Qt_1::qt_metacall
PUBLIC	?qt_static_metacall@Qt_1@@CAXPEAVQObject@@W4Call@QMetaObject@@HPEAPEAX@Z ; Qt_1::qt_static_metacall
PUBLIC	?staticMetaObject@Qt_1@@2UQMetaObject@@B	; Qt_1::staticMetaObject
EXTRN	strcmp:PROC
EXTRN	__imp_?dynamicMetaObject@QObjectData@@QEBAPEAUQMetaObject@@XZ:PROC
EXTRN	__imp_?qt_metacast@QWidget@@UEAAPEAXPEBD@Z:PROC
EXTRN	__imp_?qt_metacall@QWidget@@UEAAHW4Call@QMetaObject@@HPEAPEAX@Z:PROC
EXTRN	__imp_?staticMetaObject@QWidget@@2UQMetaObject@@B:BYTE
_BSS	SEGMENT
?staticMetaObject@Qt_1@@2UQMetaObject@@B DB 030H DUP (?) ; Qt_1::staticMetaObject
_BSS	ENDS
pdata	SEGMENT
$pdata$?metaObject@Qt_1@@UEBAPEBUQMetaObject@@XZ DD imagerel $LN5
	DD	imagerel $LN5+88
	DD	imagerel $unwind$?metaObject@Qt_1@@UEBAPEBUQMetaObject@@XZ
$pdata$?qt_metacast@Qt_1@@UEAAPEAXPEBD@Z DD imagerel $LN5
	DD	imagerel $LN5+75
	DD	imagerel $unwind$?qt_metacast@Qt_1@@UEAAPEAXPEBD@Z
$pdata$?qt_metacall@Qt_1@@UEAAHW4Call@QMetaObject@@HPEAPEAX@Z DD imagerel $LN3
	DD	imagerel $LN3+61
	DD	imagerel $unwind$?qt_metacall@Qt_1@@UEAAHW4Call@QMetaObject@@HPEAPEAX@Z
pdata	ENDS
CRT$XCU	SEGMENT
??staticMetaObject$initializer$@Qt_1@@2P6AXXZEA@@3P6AXXZEA DQ FLAT:??__E?staticMetaObject@Qt_1@@2UQMetaObject@@B@@YAXXZ ; ??staticMetaObject$initializer$@Qt_1@@2P6AXXZEA@@3P6AXXZEA
CRT$XCU	ENDS
xdata	SEGMENT
$unwind$?metaObject@Qt_1@@UEBAPEBUQMetaObject@@XZ DD 010901H
	DD	06209H
$unwind$?qt_metacast@Qt_1@@UEAAPEAXPEBD@Z DD 010e01H
	DD	0420eH
$unwind$?qt_metacall@Qt_1@@UEAAHW4Call@QMetaObject@@HPEAPEAX@Z DD 011701H
	DD	04217H
xdata	ENDS
; Function compile flags: /Odtp
;	COMDAT ??__E?staticMetaObject@Qt_1@@2UQMetaObject@@B@@YAXXZ
text$di	SEGMENT
??__E?staticMetaObject@Qt_1@@2UQMetaObject@@B@@YAXXZ PROC ; `dynamic initializer for 'Qt_1::staticMetaObject'', COMDAT
; File E:\Data_Code\qt\qt_opencv\src\qt_1\qt_1\x64\Debug\moc\moc_qt_1.cpp
; Line 66
	mov	rax, QWORD PTR __imp_?staticMetaObject@QWidget@@2UQMetaObject@@B
	mov	QWORD PTR ?staticMetaObject@Qt_1@@2UQMetaObject@@B, rax
; Line 67
	lea	rax, OFFSET FLAT:?qt_meta_stringdata_Qt_1@@3Uqt_meta_stringdata_Qt_1_t@@B
	mov	QWORD PTR ?staticMetaObject@Qt_1@@2UQMetaObject@@B+8, rax
; Line 68
	lea	rax, OFFSET FLAT:?qt_meta_data_Qt_1@@3QBIB
	mov	QWORD PTR ?staticMetaObject@Qt_1@@2UQMetaObject@@B+16, rax
; Line 69
	lea	rax, OFFSET FLAT:?qt_static_metacall@Qt_1@@CAXPEAVQObject@@W4Call@QMetaObject@@HPEAPEAX@Z ; Qt_1::qt_static_metacall
	mov	QWORD PTR ?staticMetaObject@Qt_1@@2UQMetaObject@@B+24, rax
; Line 70
	mov	QWORD PTR ?staticMetaObject@Qt_1@@2UQMetaObject@@B+32, 0
; Line 71
	mov	QWORD PTR ?staticMetaObject@Qt_1@@2UQMetaObject@@B+40, 0
	ret	0
??__E?staticMetaObject@Qt_1@@2UQMetaObject@@B@@YAXXZ ENDP ; `dynamic initializer for 'Qt_1::staticMetaObject''
text$di	ENDS
; Function compile flags: /Odtp
_TEXT	SEGMENT
_o$ = 8
_c$ = 16
_id$ = 24
_a$ = 32
?qt_static_metacall@Qt_1@@CAXPEAVQObject@@W4Call@QMetaObject@@HPEAPEAX@Z PROC ; Qt_1::qt_static_metacall
; File E:\Data_Code\qt\qt_opencv\src\qt_1\qt_1\x64\Debug\moc\moc_qt_1.cpp
; Line 58
	mov	QWORD PTR [rsp+32], r9
	mov	DWORD PTR [rsp+24], r8d
	mov	DWORD PTR [rsp+16], edx
	mov	QWORD PTR [rsp+8], rcx
; Line 63
	ret	0
?qt_static_metacall@Qt_1@@CAXPEAVQObject@@W4Call@QMetaObject@@HPEAPEAX@Z ENDP ; Qt_1::qt_static_metacall
_TEXT	ENDS
; Function compile flags: /Odtp
_TEXT	SEGMENT
this$ = 48
_c$ = 56
_id$ = 64
_a$ = 72
?qt_metacall@Qt_1@@UEAAHW4Call@QMetaObject@@HPEAPEAX@Z PROC ; Qt_1::qt_metacall
; File E:\Data_Code\qt\qt_opencv\src\qt_1\qt_1\x64\Debug\moc\moc_qt_1.cpp
; Line 89
$LN3:
	mov	QWORD PTR [rsp+32], r9
	mov	DWORD PTR [rsp+24], r8d
	mov	DWORD PTR [rsp+16], edx
	mov	QWORD PTR [rsp+8], rcx
	sub	rsp, 40					; 00000028H
; Line 90
	mov	r9, QWORD PTR _a$[rsp]
	mov	r8d, DWORD PTR _id$[rsp]
	mov	edx, DWORD PTR _c$[rsp]
	mov	rcx, QWORD PTR this$[rsp]
	call	QWORD PTR __imp_?qt_metacall@QWidget@@UEAAHW4Call@QMetaObject@@HPEAPEAX@Z
	mov	DWORD PTR _id$[rsp], eax
; Line 91
	mov	eax, DWORD PTR _id$[rsp]
; Line 92
	add	rsp, 40					; 00000028H
	ret	0
?qt_metacall@Qt_1@@UEAAHW4Call@QMetaObject@@HPEAPEAX@Z ENDP ; Qt_1::qt_metacall
_TEXT	ENDS
; Function compile flags: /Odtp
_TEXT	SEGMENT
this$ = 48
_clname$ = 56
?qt_metacast@Qt_1@@UEAAPEAXPEBD@Z PROC			; Qt_1::qt_metacast
; File E:\Data_Code\qt\qt_opencv\src\qt_1\qt_1\x64\Debug\moc\moc_qt_1.cpp
; Line 81
$LN5:
	mov	QWORD PTR [rsp+16], rdx
	mov	QWORD PTR [rsp+8], rcx
	sub	rsp, 40					; 00000028H
; Line 82
	cmp	QWORD PTR _clname$[rsp], 0
	jne	SHORT $LN2@qt_metacas
	xor	eax, eax
	jmp	SHORT $LN1@qt_metacas
$LN2@qt_metacas:
; Line 83
	lea	rdx, OFFSET FLAT:?qt_meta_stringdata_Qt_1@@3Uqt_meta_stringdata_Qt_1_t@@B+24
	mov	rcx, QWORD PTR _clname$[rsp]
	call	strcmp
	test	eax, eax
	jne	SHORT $LN3@qt_metacas
; Line 84
	mov	rax, QWORD PTR this$[rsp]
	jmp	SHORT $LN1@qt_metacas
$LN3@qt_metacas:
; Line 85
	mov	rdx, QWORD PTR _clname$[rsp]
	mov	rcx, QWORD PTR this$[rsp]
	call	QWORD PTR __imp_?qt_metacast@QWidget@@UEAAPEAXPEBD@Z
$LN1@qt_metacas:
; Line 86
	add	rsp, 40					; 00000028H
	ret	0
?qt_metacast@Qt_1@@UEAAPEAXPEBD@Z ENDP			; Qt_1::qt_metacast
_TEXT	ENDS
; Function compile flags: /Odtp
_TEXT	SEGMENT
tv82 = 32
this$ = 64
?metaObject@Qt_1@@UEBAPEBUQMetaObject@@XZ PROC		; Qt_1::metaObject
; File E:\Data_Code\qt\qt_opencv\src\qt_1\qt_1\x64\Debug\moc\moc_qt_1.cpp
; Line 76
$LN5:
	mov	QWORD PTR [rsp+8], rcx
	sub	rsp, 56					; 00000038H
; Line 77
	mov	rax, QWORD PTR this$[rsp]
	add	rax, 8
	mov	rcx, rax
	call	??C?$QScopedPointer@VQObjectData@@U?$QScopedPointerDeleter@VQObjectData@@@@@@QEBAPEAVQObjectData@@XZ ; QScopedPointer<QObjectData,QScopedPointerDeleter<QObjectData> >::operator->
	cmp	QWORD PTR [rax+40], 0
	je	SHORT $LN3@metaObject
	mov	rax, QWORD PTR this$[rsp]
	add	rax, 8
	mov	rcx, rax
	call	??C?$QScopedPointer@VQObjectData@@U?$QScopedPointerDeleter@VQObjectData@@@@@@QEBAPEAVQObjectData@@XZ ; QScopedPointer<QObjectData,QScopedPointerDeleter<QObjectData> >::operator->
	mov	rcx, rax
	call	QWORD PTR __imp_?dynamicMetaObject@QObjectData@@QEBAPEAUQMetaObject@@XZ
	mov	QWORD PTR tv82[rsp], rax
	jmp	SHORT $LN4@metaObject
$LN3@metaObject:
	lea	rax, OFFSET FLAT:?staticMetaObject@Qt_1@@2UQMetaObject@@B ; Qt_1::staticMetaObject
	mov	QWORD PTR tv82[rsp], rax
$LN4@metaObject:
	mov	rax, QWORD PTR tv82[rsp]
; Line 78
	add	rsp, 56					; 00000038H
	ret	0
?metaObject@Qt_1@@UEBAPEBUQMetaObject@@XZ ENDP		; Qt_1::metaObject
_TEXT	ENDS
; Function compile flags: /Odtp
;	COMDAT ??C?$QScopedPointer@VQObjectData@@U?$QScopedPointerDeleter@VQObjectData@@@@@@QEBAPEAVQObjectData@@XZ
_TEXT	SEGMENT
this$ = 8
??C?$QScopedPointer@VQObjectData@@U?$QScopedPointerDeleter@VQObjectData@@@@@@QEBAPEAVQObjectData@@XZ PROC ; QScopedPointer<QObjectData,QScopedPointerDeleter<QObjectData> >::operator->, COMDAT
; File D:\Ins_Develop\qt\5.12.5\msvc2017_64\include\QtCore\qscopedpointer.h
; Line 117
	mov	QWORD PTR [rsp+8], rcx
; Line 118
	mov	rax, QWORD PTR this$[rsp]
	mov	rax, QWORD PTR [rax]
; Line 119
	ret	0
??C?$QScopedPointer@VQObjectData@@U?$QScopedPointerDeleter@VQObjectData@@@@@@QEBAPEAVQObjectData@@XZ ENDP ; QScopedPointer<QObjectData,QScopedPointerDeleter<QObjectData> >::operator->
_TEXT	ENDS
; Function compile flags: /Odtp
;	COMDAT ?__empty_global_delete@@YAXPEAX_K@Z
_TEXT	SEGMENT
__formal$ = 8
__formal$ = 16
?__empty_global_delete@@YAXPEAX_K@Z PROC		; __empty_global_delete, COMDAT
; File E:\Data_Code\qt\qt_opencv\src\qt_1\qt_1\x64\Debug\moc\moc_qt_1.cpp
; Line 95
	mov	QWORD PTR [rsp+16], rdx
	mov	QWORD PTR [rsp+8], rcx
	ret	0
?__empty_global_delete@@YAXPEAX_K@Z ENDP		; __empty_global_delete
_TEXT	ENDS
; Function compile flags: /Odtp
;	COMDAT ?__empty_global_delete@@YAXPEAX@Z
_TEXT	SEGMENT
__formal$ = 8
?__empty_global_delete@@YAXPEAX@Z PROC			; __empty_global_delete, COMDAT
; File E:\Data_Code\qt\qt_opencv\src\qt_1\qt_1\x64\Debug\moc\moc_qt_1.cpp
; Line 95
	mov	QWORD PTR [rsp+8], rcx
	ret	0
?__empty_global_delete@@YAXPEAX@Z ENDP			; __empty_global_delete
_TEXT	ENDS
END
